; Function Attrs: mustprogress uwtable
define void @_ZNK10open_spiel15crowd_modelling19CrowdModellingState8ToStringB5cxx11Ev(ptr dead_on_unwind noalias writable sret(%"class.std::__cxx11::basic_string") align 8 %0, ptr nocapture noundef nonnull readonly align 8 dereferenceable(120) %1) unnamed_addr #3 align 2 {
  %3 = getelementptr inbounds nuw i8, ptr %1, i64 76
  %4 = load i32, ptr %3, align 4
  %5 = getelementptr inbounds nuw i8, ptr %1, i64 80
  %6 = load i32, ptr %5, align 8
  %7 = getelementptr inbounds nuw i8, ptr %1, i64 68
  %8 = load i32, ptr %7, align 4
  %9 = getelementptr inbounds nuw i8, ptr %1, i64 72
  %10 = load i8, ptr %9, align 8
  %11 = trunc i8 %10 to i1
  tail call fastcc void @_ZN10open_spiel15crowd_modelling12_GLOBAL__N_113StateToStringB5cxx11Eiiib(ptr dead_on_unwind noalias writable align 8 %0, i32 noundef %4, i32 noundef %6, i32 noundef %8, i1 noundef zeroext %11)
  ret void
}